; Function Attrs: mustprogress uwtable
define void @_ZN6icu_7516BuddhistCalendar19handleComputeFieldsEiR10UErrorCode(ptr noundef nonnull align 8 dereferenceable(654) %this, i32 noundef %julianDay, ptr noundef nonnull align 4 dereferenceable(4) %status) unnamed_addr #1 align 2 {
entry:
  tail call void @_ZN6icu_7517GregorianCalendar19handleComputeFieldsEiR10UErrorCode(ptr noundef nonnull align 8 dereferenceable(654) %this, i32 noundef %julianDay, ptr noundef nonnull align 4 dereferenceable(4) %status)
  %fFields.i = getelementptr inbounds i8, ptr %this, i64 12
  %arrayidx.i = getelementptr inbounds i8, ptr %this, i64 88
  %0 = load i32, ptr %arrayidx.i, align 8
  %sub = add nsw i32 %0, 543
  store i32 0, ptr %fFields.i, align 4
  %fStamp.i = getelementptr inbounds i8, ptr %this, i64 132
  store i32 1, ptr %fStamp.i, align 4
  %fIsSet.i = getelementptr inbounds i8, ptr %this, i64 108
  store i8 1, ptr %fIsSet.i, align 4
  %arrayidx.i3 = getelementptr inbounds i8, ptr %this, i64 16
  store i32 %sub, ptr %arrayidx.i3, align 8
  %arrayidx3.i = getelementptr inbounds i8, ptr %this, i64 136
  store i32 1, ptr %arrayidx3.i, align 8
  %arrayidx5.i = getelementptr inbounds i8, ptr %this, i64 109
  store i8 1, ptr %arrayidx5.i, align 1
  ret void
}